; Function Attrs: mustprogress uwtable
define noundef nonnull align 4 dereferenceable(32) ptr @_ZN32pxrInternal_v0_24__pxrReserved__11GfDualQuatfmLERKS0_(ptr noundef nonnull returned align 4 dereferenceable(32) %0, ptr noundef nonnull align 4 dereferenceable(32) %1) local_unnamed_addr #5 align 2 {
  %3 = alloca %"class.pxrInternal_v0_24__pxrReserved__::GfQuatf", align 4
  %4 = alloca %"class.pxrInternal_v0_24__pxrReserved__::GfQuatf", align 4
  %5 = alloca %"class.pxrInternal_v0_24__pxrReserved__::GfQuatf", align 4
  call void @llvm.lifetime.start.p0(i64 16, ptr nonnull %5)
  call void @llvm.memcpy.p0.p0.i64(ptr noundef nonnull align 4 dereferenceable(16) %5, ptr noundef nonnull align 4 dereferenceable(16) %0, i64 16, i1 false)
  %6 = call noundef nonnull align 4 dereferenceable(16) ptr @_ZN32pxrInternal_v0_24__pxrReserved__7GfQuatfmLERKS0_(ptr noundef nonnull align 4 dereferenceable(16) %5, ptr noundef nonnull align 4 dereferenceable(16) %1)
  %.sroa.0.0.copyload.i = load <2 x float>, ptr %6, align 4
  %.sroa.2.0..sroa_idx.i = getelementptr inbounds nuw i8, ptr %6, i64 8
  %.sroa.2.0.copyload.i = load <2 x float>, ptr %.sroa.2.0..sroa_idx.i, align 4
  call void @llvm.lifetime.end.p0(i64 16, ptr nonnull %5)
  %7 = getelementptr inbounds nuw i8, ptr %1, i64 16
  call void @llvm.lifetime.start.p0(i64 16, ptr nonnull %4)
  call void @llvm.memcpy.p0.p0.i64(ptr noundef nonnull align 4 dereferenceable(16) %4, ptr noundef nonnull align 4 dereferenceable(16) %0, i64 16, i1 false)
  %8 = call noundef nonnull align 4 dereferenceable(16) ptr @_ZN32pxrInternal_v0_24__pxrReserved__7GfQuatfmLERKS0_(ptr noundef nonnull align 4 dereferenceable(16) %4, ptr noundef nonnull align 4 dereferenceable(16) %7)
  %.sroa.0.0.copyload.i4 = load <2 x float>, ptr %8, align 4
  %.sroa.2.0..sroa_idx.i5 = getelementptr inbounds nuw i8, ptr %8, i64 8
  %.sroa.2.0.copyload.i6 = load <2 x float>, ptr %.sroa.2.0..sroa_idx.i5, align 4
  call void @llvm.lifetime.end.p0(i64 16, ptr nonnull %4)
  %9 = getelementptr inbounds nuw i8, ptr %0, i64 16
  call void @llvm.lifetime.start.p0(i64 16, ptr nonnull %3)
  call void @llvm.memcpy.p0.p0.i64(ptr noundef nonnull align 4 dereferenceable(16) %3, ptr noundef nonnull align 4 dereferenceable(16) %9, i64 16, i1 false)
  %10 = call noundef nonnull align 4 dereferenceable(16) ptr @_ZN32pxrInternal_v0_24__pxrReserved__7GfQuatfmLERKS0_(ptr noundef nonnull align 4 dereferenceable(16) %3, ptr noundef nonnull align 4 dereferenceable(16) %1)
  %.sroa.0.0.copyload.i9 = load <2 x float>, ptr %10, align 4
  %.sroa.2.0..sroa_idx.i10 = getelementptr inbounds nuw i8, ptr %10, i64 8
  %.sroa.2.0.copyload.i11 = load <2 x float>, ptr %.sroa.2.0..sroa_idx.i10, align 4
  call void @llvm.lifetime.end.p0(i64 16, ptr nonnull %3)
  %.sroa.0.4.vec.insert.i = fadd <2 x float> %.sroa.0.0.copyload.i4, %.sroa.0.0.copyload.i9
  %.sroa.6.8.vec.insert.i = fadd <2 x float> %.sroa.2.0.copyload.i6, %.sroa.2.0.copyload.i11
  store <2 x float> %.sroa.0.0.copyload.i, ptr %0, align 4
  %.sroa.220.0..sroa_idx = getelementptr inbounds nuw i8, ptr %0, i64 8
  store <2 x float> %.sroa.2.0.copyload.i, ptr %.sroa.220.0..sroa_idx, align 4
  store <2 x float> %.sroa.0.4.vec.insert.i, ptr %9, align 4
  %.sroa.218.0..sroa_idx = getelementptr inbounds nuw i8, ptr %0, i64 24
  store <2 x float> %.sroa.6.8.vec.insert.i, ptr %.sroa.218.0..sroa_idx, align 4
  ret ptr %0
}